; ModuleID = '21/1313.c'
source_filename = "21/1313.c"
target datalayout = "e-m:e-p270:32:32-p271:32:32-p272:64:64-i64:64-f80:128-n8:16:32:64-S128"
target triple = "x86_64-pc-linux-gnu"

@.str = private unnamed_addr constant [3 x i8] c"%d\00", align 1
@.str.1 = private unnamed_addr constant [2 x i8] c",\00", align 1

; Function Attrs: noinline nounwind uwtable
define dso_local i32 @main() #0 {
  %1 = alloca i32, align 4
  %2 = alloca i32, align 4
  %3 = alloca i32, align 4
  %4 = alloca i32, align 4
  %5 = alloca [300 x i32], align 16
  %6 = alloca i32, align 4
  %7 = alloca i32, align 4
  %8 = alloca i32, align 4
  %9 = alloca i32, align 4
  %10 = alloca [300 x i32], align 16
  %11 = alloca [100 x float], align 16
  %12 = alloca float, align 4
  %13 = alloca float, align 4
  store i32 0, i32* %1, align 4
  store i32 0, i32* %6, align 4
  store i32 0, i32* %8, align 4
  store i32 0, i32* %9, align 4
  %14 = call i32 (i8*, ...) @__isoc99_scanf(i8* getelementptr inbounds ([3 x i8], [3 x i8]* @.str, i64 0, i64 0), i32* %2)
  store i32 0, i32* %3, align 4
  br label %15

15:                                               ; preds = %30, %0
  %16 = load i32, i32* %3, align 4
  %17 = load i32, i32* %2, align 4
  %18 = icmp slt i32 %16, %17
  br i1 %18, label %19, label %33

19:                                               ; preds = %15
  %20 = load i32, i32* %3, align 4
  %21 = sext i32 %20 to i64
  %22 = getelementptr inbounds [300 x i32], [300 x i32]* %5, i64 0, i64 %21
  %23 = call i32 (i8*, ...) @__isoc99_scanf(i8* getelementptr inbounds ([3 x i8], [3 x i8]* @.str, i64 0, i64 0), i32* %22)
  %24 = load i32, i32* %6, align 4
  %25 = load i32, i32* %3, align 4
  %26 = sext i32 %25 to i64
  %27 = getelementptr inbounds [300 x i32], [300 x i32]* %5, i64 0, i64 %26
  %28 = load i32, i32* %27, align 4
  %29 = add nsw i32 %24, %28
  store i32 %29, i32* %6, align 4
  br label %30

30:                                               ; preds = %19
  %31 = load i32, i32* %3, align 4
  %32 = add nsw i32 %31, 1
  store i32 %32, i32* %3, align 4
  br label %15

33:                                               ; preds = %15
  %34 = load i32, i32* %6, align 4
  %35 = sitofp i32 %34 to float
  %36 = load i32, i32* %2, align 4
  %37 = sitofp i32 %36 to float
  %38 = fdiv float %35, %37
  store float %38, float* %13, align 4
  store i32 0, i32* %3, align 4
  br label %39

39:                                               ; preds = %74, %33
  %40 = load i32, i32* %3, align 4
  %41 = load i32, i32* %2, align 4
  %42 = icmp slt i32 %40, %41
  br i1 %42, label %43, label %77

43:                                               ; preds = %39
  %44 = load float, float* %13, align 4
  %45 = load i32, i32* %3, align 4
  %46 = sext i32 %45 to i64
  %47 = getelementptr inbounds [300 x i32], [300 x i32]* %5, i64 0, i64 %46
  %48 = load i32, i32* %47, align 4
  %49 = sitofp i32 %48 to float
  %50 = fcmp oge float %44, %49
  br i1 %50, label %51, label %62

51:                                               ; preds = %43
  %52 = load float, float* %13, align 4
  %53 = load i32, i32* %3, align 4
  %54 = sext i32 %53 to i64
  %55 = getelementptr inbounds [300 x i32], [300 x i32]* %5, i64 0, i64 %54
  %56 = load i32, i32* %55, align 4
  %57 = sitofp i32 %56 to float
  %58 = fsub float %52, %57
  %59 = load i32, i32* %3, align 4
  %60 = sext i32 %59 to i64
  %61 = getelementptr inbounds [100 x float], [100 x float]* %11, i64 0, i64 %60
  store float %58, float* %61, align 4
  br label %73

62:                                               ; preds = %43
  %63 = load i32, i32* %3, align 4
  %64 = sext i32 %63 to i64
  %65 = getelementptr inbounds [300 x i32], [300 x i32]* %5, i64 0, i64 %64
  %66 = load i32, i32* %65, align 4
  %67 = sitofp i32 %66 to float
  %68 = load float, float* %13, align 4
  %69 = fsub float %67, %68
  %70 = load i32, i32* %3, align 4
  %71 = sext i32 %70 to i64
  %72 = getelementptr inbounds [100 x float], [100 x float]* %11, i64 0, i64 %71
  store float %69, float* %72, align 4
  br label %73

73:                                               ; preds = %62, %51
  br label %74

74:                                               ; preds = %73
  %75 = load i32, i32* %3, align 4
  %76 = add nsw i32 %75, 1
  store i32 %76, i32* %3, align 4
  br label %39

77:                                               ; preds = %39
  %78 = getelementptr inbounds [100 x float], [100 x float]* %11, i64 0, i64 0
  %79 = load float, float* %78, align 16
  store float %79, float* %12, align 4
  store i32 0, i32* %3, align 4
  br label %80

80:                                               ; preds = %97, %77
  %81 = load i32, i32* %3, align 4
  %82 = load i32, i32* %2, align 4
  %83 = icmp slt i32 %81, %82
  br i1 %83, label %84, label %100

84:                                               ; preds = %80
  %85 = load float, float* %12, align 4
  %86 = load i32, i32* %3, align 4
  %87 = sext i32 %86 to i64
  %88 = getelementptr inbounds [100 x float], [100 x float]* %11, i64 0, i64 %87
  %89 = load float, float* %88, align 4
  %90 = fcmp ole float %85, %89
  br i1 %90, label %91, label %96

91:                                               ; preds = %84
  %92 = load i32, i32* %3, align 4
  %93 = sext i32 %92 to i64
  %94 = getelementptr inbounds [100 x float], [100 x float]* %11, i64 0, i64 %93
  %95 = load float, float* %94, align 4
  store float %95, float* %12, align 4
  br label %96

96:                                               ; preds = %91, %84
  br label %97

97:                                               ; preds = %96
  %98 = load i32, i32* %3, align 4
  %99 = add nsw i32 %98, 1
  store i32 %99, i32* %3, align 4
  br label %80

100:                                              ; preds = %80
  store i32 0, i32* %3, align 4
  br label %101

101:                                              ; preds = %124, %100
  %102 = load i32, i32* %3, align 4
  %103 = load i32, i32* %2, align 4
  %104 = icmp slt i32 %102, %103
  br i1 %104, label %105, label %127

105:                                              ; preds = %101
  %106 = load i32, i32* %3, align 4
  %107 = sext i32 %106 to i64
  %108 = getelementptr inbounds [100 x float], [100 x float]* %11, i64 0, i64 %107
  %109 = load float, float* %108, align 4
  %110 = load float, float* %12, align 4
  %111 = fcmp oeq float %109, %110
  br i1 %111, label %112, label %123

112:                                              ; preds = %105
  %113 = load i32, i32* %8, align 4
  %114 = add nsw i32 %113, 1
  store i32 %114, i32* %8, align 4
  %115 = load i32, i32* %3, align 4
  %116 = sext i32 %115 to i64
  %117 = getelementptr inbounds [300 x i32], [300 x i32]* %5, i64 0, i64 %116
  %118 = load i32, i32* %117, align 4
  %119 = load i32, i32* %8, align 4
  %120 = sub nsw i32 %119, 1
  %121 = sext i32 %120 to i64
  %122 = getelementptr inbounds [300 x i32], [300 x i32]* %10, i64 0, i64 %121
  store i32 %118, i32* %122, align 4
  br label %123

123:                                              ; preds = %112, %105
  br label %124

124:                                              ; preds = %123
  %125 = load i32, i32* %3, align 4
  %126 = add nsw i32 %125, 1
  store i32 %126, i32* %3, align 4
  br label %101

127:                                              ; preds = %101
  store i32 0, i32* %3, align 4
  br label %128

128:                                              ; preds = %170, %127
  %129 = load i32, i32* %3, align 4
  %130 = load i32, i32* %8, align 4
  %131 = icmp slt i32 %129, %130
  br i1 %131, label %132, label %173

132:                                              ; preds = %128
  %133 = load i32, i32* %8, align 4
  %134 = sub nsw i32 %133, 1
  store i32 %134, i32* %4, align 4
  br label %135

135:                                              ; preds = %166, %132
  %136 = load i32, i32* %4, align 4
  %137 = load i32, i32* %3, align 4
  %138 = icmp sgt i32 %136, %137
  br i1 %138, label %139, label %169

139:                                              ; preds = %135
  %140 = load i32, i32* %3, align 4
  %141 = sext i32 %140 to i64
  %142 = getelementptr inbounds [300 x i32], [300 x i32]* %10, i64 0, i64 %141
  %143 = load i32, i32* %142, align 4
  %144 = load i32, i32* %4, align 4
  %145 = sext i32 %144 to i64
  %146 = getelementptr inbounds [300 x i32], [300 x i32]* %10, i64 0, i64 %145
  %147 = load i32, i32* %146, align 4
  %148 = icmp sgt i32 %143, %147
  br i1 %148, label %149, label %165

149:                                              ; preds = %139
  %150 = load i32, i32* %3, align 4
  %151 = sext i32 %150 to i64
  %152 = getelementptr inbounds [300 x i32], [300 x i32]* %10, i64 0, i64 %151
  %153 = load i32, i32* %152, align 4
  store i32 %153, i32* %7, align 4
  %154 = load i32, i32* %4, align 4
  %155 = sext i32 %154 to i64
  %156 = getelementptr inbounds [300 x i32], [300 x i32]* %10, i64 0, i64 %155
  %157 = load i32, i32* %156, align 4
  %158 = load i32, i32* %3, align 4
  %159 = sext i32 %158 to i64
  %160 = getelementptr inbounds [300 x i32], [300 x i32]* %10, i64 0, i64 %159
  store i32 %157, i32* %160, align 4
  %161 = load i32, i32* %7, align 4
  %162 = load i32, i32* %4, align 4
  %163 = sext i32 %162 to i64
  %164 = getelementptr inbounds [300 x i32], [300 x i32]* %10, i64 0, i64 %163
  store i32 %161, i32* %164, align 4
  br label %165

165:                                              ; preds = %149, %139
  br label %166

166:                                              ; preds = %165
  %167 = load i32, i32* %4, align 4
  %168 = add nsw i32 %167, -1
  store i32 %168, i32* %4, align 4
  br label %135

169:                                              ; preds = %135
  br label %170

170:                                              ; preds = %169
  %171 = load i32, i32* %3, align 4
  %172 = add nsw i32 %171, 1
  store i32 %172, i32* %3, align 4
  br label %128

173:                                              ; preds = %128
  store i32 0, i32* %3, align 4
  br label %174

174:                                              ; preds = %195, %173
  %175 = load i32, i32* %3, align 4
  %176 = load i32, i32* %8, align 4
  %177 = icmp slt i32 %175, %176
  br i1 %177, label %178, label %198

178:                                              ; preds = %174
  %179 = load i32, i32* %3, align 4
  %180 = sext i32 %179 to i64
  %181 = getelementptr inbounds [300 x i32], [300 x i32]* %10, i64 0, i64 %180
  %182 = load i32, i32* %181, align 4
  %183 = call i32 (i8*, ...) @printf(i8* getelementptr inbounds ([3 x i8], [3 x i8]* @.str, i64 0, i64 0), i32 %182)
  %184 = load i32, i32* %9, align 4
  %185 = add nsw i32 %184, 1
  store i32 %185, i32* %9, align 4
  %186 = load i32, i32* %9, align 4
  %187 = icmp sge i32 %186, 1
  br i1 %187, label %188, label %194

188:                                              ; preds = %178
  %189 = load i32, i32* %9, align 4
  %190 = load i32, i32* %8, align 4
  %191 = icmp slt i32 %189, %190
  br i1 %191, label %192, label %194

192:                                              ; preds = %188
  %193 = call i32 (i8*, ...) @printf(i8* getelementptr inbounds ([2 x i8], [2 x i8]* @.str.1, i64 0, i64 0))
  br label %194

194:                                              ; preds = %192, %188, %178
  br label %195

195:                                              ; preds = %194
  %196 = load i32, i32* %3, align 4
  %197 = add nsw i32 %196, 1
  store i32 %197, i32* %3, align 4
  br label %174

198:                                              ; preds = %174
  ret i32 0
}

declare dso_local i32 @__isoc99_scanf(i8*, ...) #1

declare dso_local i32 @printf(i8*, ...) #1


!llvm.module.flags = !{!0}
!llvm.ident = !{!1}

!0 = !{i32 1, !"wchar_size", i32 4}
!1 = !{!"clang version 10.0.0-4ubuntu1 "}
